target datalayout = "e-m:e-p270:32:32-p271:32:32-p272:64:64-i64:64-i128:128-f80:128-n8:16:32:64-S128"
target triple = "x86_64-pc-linux-gnu"

%"class.std::mutex" = type { %"class.std::__mutex_base" }
%"class.std::__mutex_base" = type { %union.pthread_mutex_t }
%union.pthread_mutex_t = type { %struct.__pthread_mutex_s }
%struct.__pthread_mutex_s = type { i32, i32, i32, i32, i32, i16, i16, %struct.__pthread_internal_list }
%struct.__pthread_internal_list = type { ptr, ptr }
%"class.std::__shared_count" = type { ptr }
%"class.std::shared_ptr.37" = type { %"class.std::__shared_ptr.38" }
%"class.std::__shared_ptr.38" = type { ptr, %"class.std::__shared_count" }
%"class.gmx::AnalysisNeighborhood::Impl" = type <{ %"class.std::mutex", %"class.std::vector.40", float, [4 x i8], ptr, i32, i8, [3 x i8] }>
%"class.std::vector.40" = type { %"struct.std::_Vector_base.41" }
%"struct.std::_Vector_base.41" = type { %"struct.std::_Vector_base<std::shared_ptr<gmx::internal::AnalysisNeighborhoodSearchImpl>, std::allocator<std::shared_ptr<gmx::internal::AnalysisNeighborhoodSearchImpl>>>::_Vector_impl" }
%"struct.std::_Vector_base<std::shared_ptr<gmx::internal::AnalysisNeighborhoodSearchImpl>, std::allocator<std::shared_ptr<gmx::internal::AnalysisNeighborhoodSearchImpl>>>::_Vector_impl" = type { %"struct.std::_Vector_base<std::shared_ptr<gmx::internal::AnalysisNeighborhoodSearchImpl>, std::allocator<std::shared_ptr<gmx::internal::AnalysisNeighborhoodSearchImpl>>>::_Vector_impl_data" }
%"struct.std::_Vector_base<std::shared_ptr<gmx::internal::AnalysisNeighborhoodSearchImpl>, std::allocator<std::shared_ptr<gmx::internal::AnalysisNeighborhoodSearchImpl>>>::_Vector_impl_data" = type { ptr, ptr, ptr }
%"class.gmx::AnalysisNeighborhood" = type { %"class.std::unique_ptr.48" }
%"class.std::unique_ptr.48" = type { %"struct.std::__uniq_ptr_data.49" }
%"struct.std::__uniq_ptr_data.49" = type { %"class.std::__uniq_ptr_impl.50" }
%"class.std::__uniq_ptr_impl.50" = type { %"class.std::tuple.51" }
%"class.std::tuple.51" = type { %"struct.std::_Tuple_impl.52" }
%"struct.std::_Tuple_impl.52" = type { %"struct.std::_Head_base.55" }
%"struct.std::_Head_base.55" = type { ptr }
%"class.gmx::AnalysisNeighborhoodSearch" = type { %"class.std::shared_ptr.37" }

@_ZN3gmx26AnalysisNeighborhoodSearchC1ERKSt10shared_ptrINS_8internal30AnalysisNeighborhoodSearchImplEE = unnamed_addr alias void (ptr, ptr), ptr @_ZN3gmx26AnalysisNeighborhoodSearchC2ERKSt10shared_ptrINS_8internal30AnalysisNeighborhoodSearchImplEE

; Function Attrs: mustprogress nounwind uwtable
define linkonce_odr noundef nonnull align 8 dereferenceable(8) ptr @_ZNSt10_Head_baseILm0EPN3gmx20AnalysisNeighborhood4ImplELb0EE7_M_headERKS4_(ptr noundef nonnull align 8 dereferenceable(8) %0) #1 comdat align 2 {
  %2 = alloca ptr, align 8
  store ptr %0, ptr %2, align 8, !tbaa !431
  %3 = load ptr, ptr %2, align 8, !tbaa !431
  %4 = getelementptr inbounds nuw %"struct.std::_Head_base.55", ptr %3, i32 0, i32 0
  ret ptr %4
}

; Function Attrs: mustprogress nounwind uwtable
define linkonce_odr noundef nonnull align 8 dereferenceable(8) ptr @_ZNSt11_Tuple_implILm0EJPN3gmx20AnalysisNeighborhood4ImplESt14default_deleteIS2_EEE7_M_headERKS6_(ptr noundef nonnull align 8 dereferenceable(8) %0) #1 comdat align 2 {
  %2 = alloca ptr, align 8
  store ptr %0, ptr %2, align 8, !tbaa !427
  %3 = load ptr, ptr %2, align 8, !tbaa !427
  %4 = call noundef nonnull align 8 dereferenceable(8) ptr @_ZNSt10_Head_baseILm0EPN3gmx20AnalysisNeighborhood4ImplELb0EE7_M_headERKS4_(ptr noundef nonnull align 8 dereferenceable(8) %3) #20
  ret ptr %4
}

; Function Attrs: mustprogress nounwind uwtable
define linkonce_odr noundef nonnull align 8 dereferenceable(8) ptr @_ZSt12__get_helperILm0EPN3gmx20AnalysisNeighborhood4ImplEJSt14default_deleteIS2_EEERKT0_RKSt11_Tuple_implIXT_EJS6_DpT1_EE(ptr noundef nonnull align 8 dereferenceable(8) %0) #1 comdat {
  %2 = alloca ptr, align 8
  store ptr %0, ptr %2, align 8, !tbaa !427
  %3 = load ptr, ptr %2, align 8, !tbaa !427
  %4 = call noundef nonnull align 8 dereferenceable(8) ptr @_ZNSt11_Tuple_implILm0EJPN3gmx20AnalysisNeighborhood4ImplESt14default_deleteIS2_EEE7_M_headERKS6_(ptr noundef nonnull align 8 dereferenceable(8) %3) #20
  ret ptr %4
}

; Function Attrs: mustprogress nounwind uwtable
define linkonce_odr noundef nonnull align 8 dereferenceable(8) ptr @_ZSt3getILm0EJPN3gmx20AnalysisNeighborhood4ImplESt14default_deleteIS2_EEERKNSt13tuple_elementIXT_ESt5tupleIJDpT0_EEE4typeERKSA_(ptr noundef nonnull align 8 dereferenceable(8) %0) #1 comdat {
  %2 = alloca ptr, align 8
  store ptr %0, ptr %2, align 8, !tbaa !425
  %3 = load ptr, ptr %2, align 8, !tbaa !425
  %4 = call noundef nonnull align 8 dereferenceable(8) ptr @_ZSt12__get_helperILm0EPN3gmx20AnalysisNeighborhood4ImplEJSt14default_deleteIS2_EEERKT0_RKSt11_Tuple_implIXT_EJS6_DpT1_EE(ptr noundef nonnull align 8 dereferenceable(8) %3) #20
  ret ptr %4
}

; Function Attrs: mustprogress nounwind uwtable
define linkonce_odr noundef ptr @_ZNKSt12__shared_ptrIN3gmx8internal30AnalysisNeighborhoodSearchImplELN9__gnu_cxx12_Lock_policyE2EE3getEv(ptr noundef nonnull align 8 dereferenceable(16) %0) #1 comdat align 2 {
  %2 = alloca ptr, align 8
  store ptr %0, ptr %2, align 8, !tbaa !388
  %3 = load ptr, ptr %2, align 8
  %4 = getelementptr inbounds nuw %"class.std::__shared_ptr.38", ptr %3, i32 0, i32 0
  %5 = load ptr, ptr %4, align 8, !tbaa !396
  ret ptr %5
}

; Function Attrs: mustprogress nounwind uwtable
define linkonce_odr noundef ptr @_ZNKSt15__uniq_ptr_implIN3gmx20AnalysisNeighborhood4ImplESt14default_deleteIS2_EE6_M_ptrEv(ptr noundef nonnull align 8 dereferenceable(8) %0) #1 comdat align 2 {
  %2 = alloca ptr, align 8
  store ptr %0, ptr %2, align 8, !tbaa !423
  %3 = load ptr, ptr %2, align 8
  %4 = getelementptr inbounds nuw %"class.std::__uniq_ptr_impl.50", ptr %3, i32 0, i32 0
  %5 = call noundef nonnull align 8 dereferenceable(8) ptr @_ZSt3getILm0EJPN3gmx20AnalysisNeighborhood4ImplESt14default_deleteIS2_EEERKNSt13tuple_elementIXT_ESt5tupleIJDpT0_EEE4typeERKSA_(ptr noundef nonnull align 8 dereferenceable(8) %4) #20
  %6 = load ptr, ptr %5, align 8, !tbaa !368
  ret ptr %6
}

; Function Attrs: mustprogress nounwind uwtable
define linkonce_odr noundef ptr @_ZNKSt19__shared_ptr_accessIN3gmx8internal30AnalysisNeighborhoodSearchImplELN9__gnu_cxx12_Lock_policyE2ELb0ELb0EE6_M_getEv(ptr noundef nonnull align 1 dereferenceable(1) %0) #1 comdat align 2 {
  %2 = alloca ptr, align 8
  store ptr %0, ptr %2, align 8, !tbaa !443
  %3 = load ptr, ptr %2, align 8
  %4 = call noundef ptr @_ZNKSt12__shared_ptrIN3gmx8internal30AnalysisNeighborhoodSearchImplELN9__gnu_cxx12_Lock_policyE2EE3getEv(ptr noundef nonnull align 8 dereferenceable(16) %3) #20
  ret ptr %4
}

; Function Attrs: mustprogress nounwind uwtable
define linkonce_odr noundef ptr @_ZNKSt10unique_ptrIN3gmx20AnalysisNeighborhood4ImplESt14default_deleteIS2_EE3getEv(ptr noundef nonnull align 8 dereferenceable(8) %0) #1 comdat align 2 {
  %2 = alloca ptr, align 8
  store ptr %0, ptr %2, align 8, !tbaa !415
  %3 = load ptr, ptr %2, align 8
  %4 = getelementptr inbounds nuw %"class.std::unique_ptr.48", ptr %3, i32 0, i32 0
  %5 = call noundef ptr @_ZNKSt15__uniq_ptr_implIN3gmx20AnalysisNeighborhood4ImplESt14default_deleteIS2_EE6_M_ptrEv(ptr noundef nonnull align 8 dereferenceable(8) %4) #20
  ret ptr %5
}

; Function Attrs: mustprogress nounwind uwtable
define noundef i32 @_ZNK3gmx20AnalysisNeighborhood4modeEv(ptr noundef nonnull align 8 dereferenceable(8) %0) #1 align 2 {
  %2 = alloca ptr, align 8
  store ptr %0, ptr %2, align 8, !tbaa !410
  %3 = load ptr, ptr %2, align 8
  %4 = getelementptr inbounds nuw %"class.gmx::AnalysisNeighborhood", ptr %3, i32 0, i32 0
  %5 = call noundef ptr @_ZNKSt10unique_ptrIN3gmx20AnalysisNeighborhood4ImplESt14default_deleteIS2_EEptEv(ptr noundef nonnull align 8 dereferenceable(8) %4) #20
  %6 = getelementptr inbounds nuw %"class.gmx::AnalysisNeighborhood::Impl", ptr %5, i32 0, i32 5
  %7 = load i32, ptr %6, align 8, !tbaa !413
  ret i32 %7
}

; Function Attrs: mustprogress nounwind uwtable
define linkonce_odr noundef ptr @_ZNKSt19__shared_ptr_accessIN3gmx8internal30AnalysisNeighborhoodSearchImplELN9__gnu_cxx12_Lock_policyE2ELb0ELb0EEptEv(ptr noundef nonnull align 1 dereferenceable(1) %0) #1 comdat align 2 {
  %2 = alloca ptr, align 8
  store ptr %0, ptr %2, align 8, !tbaa !443
  %3 = load ptr, ptr %2, align 8
  %4 = call noundef ptr @_ZNKSt19__shared_ptr_accessIN3gmx8internal30AnalysisNeighborhoodSearchImplELN9__gnu_cxx12_Lock_policyE2ELb0ELb0EE6_M_getEv(ptr noundef nonnull align 1 dereferenceable(1) %3) #20
  ret ptr %4
}

; Function Attrs: mustprogress nounwind uwtable
define linkonce_odr noundef ptr @_ZNKSt10unique_ptrIN3gmx20AnalysisNeighborhood4ImplESt14default_deleteIS2_EEptEv(ptr noundef nonnull align 8 dereferenceable(8) %0) #1 comdat align 2 {
  %2 = alloca ptr, align 8
  store ptr %0, ptr %2, align 8, !tbaa !415
  %3 = load ptr, ptr %2, align 8
  %4 = call noundef ptr @_ZNKSt10unique_ptrIN3gmx20AnalysisNeighborhood4ImplESt14default_deleteIS2_EE3getEv(ptr noundef nonnull align 8 dereferenceable(8) %3) #20
  ret ptr %4
}

; Function Attrs: mustprogress uwtable
define void @_ZN3gmx20AnalysisNeighborhood10initSearchEPK5t_pbcRKNS_29AnalysisNeighborhoodPositionsE(ptr dead_on_unwind noalias writable sret(%"class.gmx::AnalysisNeighborhoodSearch") align 8 %0, ptr noundef nonnull align 8 dereferenceable(8) %1, ptr noundef %2, ptr noundef nonnull align 8 dereferenceable(32) %3) #0 align 2 personality ptr @__gxx_personality_v0 {
  %5 = alloca ptr, align 8
  %6 = alloca ptr, align 8
  %7 = alloca ptr, align 8
  %8 = alloca ptr, align 8
  %9 = alloca %"class.std::shared_ptr.37", align 8
  %10 = alloca ptr, align 8
  %11 = alloca i32, align 4
  store ptr %0, ptr %5, align 8
  store ptr %1, ptr %6, align 8, !tbaa !410
  store ptr %2, ptr %7, align 8, !tbaa !213
  store ptr %3, ptr %8, align 8, !tbaa !243
  %12 = load ptr, ptr %6, align 8
  call void @llvm.lifetime.start.p0(i64 16, ptr %9) #20
  %13 = getelementptr inbounds nuw %"class.gmx::AnalysisNeighborhood", ptr %12, i32 0, i32 0
  %14 = call noundef ptr @_ZNKSt10unique_ptrIN3gmx20AnalysisNeighborhood4ImplESt14default_deleteIS2_EEptEv(ptr noundef nonnull align 8 dereferenceable(8) %13) #20
  call void @_ZN3gmx20AnalysisNeighborhood4Impl9getSearchEv(ptr dead_on_unwind writable sret(%"class.std::shared_ptr.37") align 8 %9, ptr noundef nonnull align 8 dereferenceable(85) %14)
  %15 = call noundef ptr @_ZNKSt19__shared_ptr_accessIN3gmx8internal30AnalysisNeighborhoodSearchImplELN9__gnu_cxx12_Lock_policyE2ELb0ELb0EEptEv(ptr noundef nonnull align 1 dereferenceable(1) %9) #20
  %16 = call noundef i32 @_ZNK3gmx20AnalysisNeighborhood4modeEv(ptr noundef nonnull align 8 dereferenceable(8) %12)
  %17 = getelementptr inbounds nuw %"class.gmx::AnalysisNeighborhood", ptr %12, i32 0, i32 0
  %18 = call noundef ptr @_ZNKSt10unique_ptrIN3gmx20AnalysisNeighborhood4ImplESt14default_deleteIS2_EEptEv(ptr noundef nonnull align 8 dereferenceable(8) %17) #20
  %19 = getelementptr inbounds nuw %"class.gmx::AnalysisNeighborhood::Impl", ptr %18, i32 0, i32 6
  %20 = load i8, ptr %19, align 4, !tbaa !414, !range !184, !noundef !185
  %21 = trunc i8 %20 to i1
  %22 = getelementptr inbounds nuw %"class.gmx::AnalysisNeighborhood", ptr %12, i32 0, i32 0
  %23 = call noundef ptr @_ZNKSt10unique_ptrIN3gmx20AnalysisNeighborhood4ImplESt14default_deleteIS2_EEptEv(ptr noundef nonnull align 8 dereferenceable(8) %22) #20
  %24 = getelementptr inbounds nuw %"class.gmx::AnalysisNeighborhood::Impl", ptr %23, i32 0, i32 4
  %25 = load ptr, ptr %24, align 8, !tbaa !412
  %26 = load ptr, ptr %7, align 8, !tbaa !213
  %27 = load ptr, ptr %8, align 8, !tbaa !243
  invoke void @_ZN3gmx8internal30AnalysisNeighborhoodSearchImpl4initENS_20AnalysisNeighborhood10SearchModeEbPKNS_11ListOfListsIiEEPK5t_pbcRKNS_29AnalysisNeighborhoodPositionsE(ptr noundef nonnull align 8 dereferenceable(624) %15, i32 noundef %16, i1 noundef zeroext %21, ptr noundef %25, ptr noundef %26, ptr noundef nonnull align 8 dereferenceable(32) %27)
          to label %28 unwind label %30

28:                                               ; preds = %4
  invoke void @_ZN3gmx26AnalysisNeighborhoodSearchC1ERKSt10shared_ptrINS_8internal30AnalysisNeighborhoodSearchImplEE(ptr noundef nonnull align 8 dereferenceable(16) %0, ptr noundef nonnull align 8 dereferenceable(16) %9)
          to label %29 unwind label %30

29:                                               ; preds = %28
  call void @_ZNSt12__shared_ptrIN3gmx8internal30AnalysisNeighborhoodSearchImplELN9__gnu_cxx12_Lock_policyE2EED2Ev(ptr noundef nonnull align 8 dereferenceable(16) %9) #20
  call void @llvm.lifetime.end.p0(i64 16, ptr %9) #20
  ret void

30:                                               ; preds = %28, %4
  %31 = landingpad { ptr, i32 }
          cleanup
  %32 = extractvalue { ptr, i32 } %31, 0
  store ptr %32, ptr %10, align 8
  %33 = extractvalue { ptr, i32 } %31, 1
  store i32 %33, ptr %11, align 4
  call void @_ZNSt12__shared_ptrIN3gmx8internal30AnalysisNeighborhoodSearchImplELN9__gnu_cxx12_Lock_policyE2EED2Ev(ptr noundef nonnull align 8 dereferenceable(16) %9) #20
  call void @llvm.lifetime.end.p0(i64 16, ptr %9) #20
  br label %34

34:                                               ; preds = %30
  %35 = load ptr, ptr %10, align 8
  %36 = load i32, ptr %11, align 4
  %37 = insertvalue { ptr, i32 } poison, ptr %35, 0
  %38 = insertvalue { ptr, i32 } %37, i32 %36, 1
  resume { ptr, i32 } %38
}