; Function Attrs: mustprogress uwtable
define void @_ZN3gmx20AnalysisNeighborhood10initSearchEPK5t_pbcRKNS_29AnalysisNeighborhoodPositionsE(ptr dead_on_unwind noalias writable sret(%"class.gmx::AnalysisNeighborhoodSearch") align 8 %0, ptr noundef nonnull readonly align 8 captures(none) dereferenceable(8) %1, ptr noundef %2, ptr noundef nonnull readonly align 8 captures(none) dereferenceable(32) %3) local_unnamed_addr #16 align 2 personality ptr @__gxx_personality_v0 {
  %5 = alloca %"class.std::shared_ptr.37", align 8
  call void @llvm.lifetime.start.p0(i64 16, ptr nonnull %5) #36
  %6 = load ptr, ptr %1, align 8, !tbaa !216
  call void @_ZN3gmx20AnalysisNeighborhood4Impl9getSearchEv(ptr dead_on_unwind nonnull writable sret(%"class.std::shared_ptr.37") align 8 %5, ptr noundef nonnull align 8 dereferenceable(85) %6)
  %7 = load ptr, ptr %5, align 8, !tbaa !187
  %8 = load ptr, ptr %1, align 8, !tbaa !216
  %9 = getelementptr inbounds nuw i8, ptr %8, i64 80
  %10 = load i32, ptr %9, align 8, !tbaa !214
  %11 = getelementptr inbounds nuw i8, ptr %8, i64 84
  %12 = load i8, ptr %11, align 4, !tbaa !215, !range !88, !noundef !89
  %13 = trunc nuw i8 %12 to i1
  %14 = getelementptr inbounds nuw i8, ptr %8, i64 72
  %15 = load ptr, ptr %14, align 8, !tbaa !213
  invoke void @_ZN3gmx8internal30AnalysisNeighborhoodSearchImpl4initENS_20AnalysisNeighborhood10SearchModeEbPKNS_11ListOfListsIiEEPK5t_pbcRKNS_29AnalysisNeighborhoodPositionsE(ptr noundef nonnull align 8 dereferenceable(624) %7, i32 noundef %10, i1 noundef zeroext %13, ptr noundef %15, ptr noundef %2, ptr noundef nonnull align 8 dereferenceable(32) %3)
          to label %16 unwind label %41

16:                                               ; preds = %4
  invoke void @_ZN3gmx26AnalysisNeighborhoodSearchC1ERKSt10shared_ptrINS_8internal30AnalysisNeighborhoodSearchImplEE(ptr noundef nonnull align 8 dereferenceable(16) %0, ptr noundef nonnull align 8 dereferenceable(16) %5)
          to label %17 unwind label %41

17:                                               ; preds = %16
  %18 = getelementptr inbounds nuw i8, ptr %5, i64 8
  %19 = load ptr, ptr %18, align 8, !tbaa !40
  %.not.i.i = icmp eq ptr %19, null
  br i1 %.not.i.i, label %_ZNSt12__shared_ptrIN3gmx8internal30AnalysisNeighborhoodSearchImplELN9__gnu_cxx12_Lock_policyE2EED2Ev.exit, label %20

20:                                               ; preds = %17
  %21 = getelementptr inbounds nuw i8, ptr %19, i64 8
  %22 = load atomic i64, ptr %21 acquire, align 8
  %23 = icmp eq i64 %22, 4294967297
  %24 = trunc i64 %22 to i32
  br i1 %23, label %25, label %33

25:                                               ; preds = %20
  store i32 0, ptr %21, align 8, !tbaa !43
  %26 = getelementptr inbounds nuw i8, ptr %19, i64 12
  store i32 0, ptr %26, align 4, !tbaa !45
  %27 = load ptr, ptr %19, align 8, !tbaa !46
  %28 = getelementptr inbounds nuw i8, ptr %27, i64 16
  %29 = load ptr, ptr %28, align 8
  call void %29(ptr noundef nonnull align 8 dereferenceable(16) %19) #36
  %30 = load ptr, ptr %19, align 8, !tbaa !46
  %31 = getelementptr inbounds nuw i8, ptr %30, i64 24
  %32 = load ptr, ptr %31, align 8
  call void %32(ptr noundef nonnull align 8 dereferenceable(16) %19) #36
  br label %_ZNSt12__shared_ptrIN3gmx8internal30AnalysisNeighborhoodSearchImplELN9__gnu_cxx12_Lock_policyE2EED2Ev.exit

33:                                               ; preds = %20
  %34 = load i8, ptr @__libc_single_threaded, align 1, !tbaa !48
  %.not.i.i.i = icmp eq i8 %34, 0
  br i1 %.not.i.i.i, label %37, label %35

35:                                               ; preds = %33
  %36 = add nsw i32 %24, -1
  store i32 %36, ptr %21, align 4, !tbaa !39
  br label %_ZN9__gnu_cxx27__exchange_and_add_dispatchEPii.exit.i.i.i

37:                                               ; preds = %33
  %38 = atomicrmw volatile add ptr %21, i32 -1 acq_rel, align 4
  br label %_ZN9__gnu_cxx27__exchange_and_add_dispatchEPii.exit.i.i.i

_ZN9__gnu_cxx27__exchange_and_add_dispatchEPii.exit.i.i.i: ; preds = %37, %35
  %.0.i.i.i.i = phi i32 [ %24, %35 ], [ %38, %37 ]
  %39 = icmp eq i32 %.0.i.i.i.i, 1
  br i1 %39, label %40, label %_ZNSt12__shared_ptrIN3gmx8internal30AnalysisNeighborhoodSearchImplELN9__gnu_cxx12_Lock_policyE2EED2Ev.exit, !prof !49

40:                                               ; preds = %_ZN9__gnu_cxx27__exchange_and_add_dispatchEPii.exit.i.i.i
  call void @_ZNSt16_Sp_counted_baseILN9__gnu_cxx12_Lock_policyE2EE24_M_release_last_use_coldEv(ptr noundef nonnull align 8 dereferenceable(16) %19) #36
  br label %_ZNSt12__shared_ptrIN3gmx8internal30AnalysisNeighborhoodSearchImplELN9__gnu_cxx12_Lock_policyE2EED2Ev.exit

_ZNSt12__shared_ptrIN3gmx8internal30AnalysisNeighborhoodSearchImplELN9__gnu_cxx12_Lock_policyE2EED2Ev.exit: ; preds = %17, %25, %_ZN9__gnu_cxx27__exchange_and_add_dispatchEPii.exit.i.i.i, %40
  call void @llvm.lifetime.end.p0(i64 16, ptr nonnull %5) #36
  ret void

41:                                               ; preds = %16, %4
  %42 = landingpad { ptr, i32 }
          cleanup
  call void @_ZNSt12__shared_ptrIN3gmx8internal30AnalysisNeighborhoodSearchImplELN9__gnu_cxx12_Lock_policyE2EED2Ev(ptr noundef nonnull align 8 dereferenceable(16) %5) #36
  call void @llvm.lifetime.end.p0(i64 16, ptr nonnull %5) #36
  resume { ptr, i32 } %42
}